
servo.elf:     file format elf32-avr

Sections:
Idx Name          Size      VMA       LMA       File off  Algn
  0 .text         000003e0  00000000  00000000  00000074  2**1
                  CONTENTS, ALLOC, LOAD, READONLY, CODE
  1 .data         00000004  00800060  000003e0  00000454  2**0
                  CONTENTS, ALLOC, LOAD, DATA
  2 .bss          00000003  00800064  000003e4  00000458  2**0
                  ALLOC
  3 .stab         00000378  00000000  00000000  00000458  2**2
                  CONTENTS, READONLY, DEBUGGING
  4 .stabstr      0000005f  00000000  00000000  000007d0  2**0
                  CONTENTS, READONLY, DEBUGGING
  5 .debug_aranges 00000020  00000000  00000000  0000082f  2**0
                  CONTENTS, READONLY, DEBUGGING
  6 .debug_pubnames 0000006c  00000000  00000000  0000084f  2**0
                  CONTENTS, READONLY, DEBUGGING
  7 .debug_info   000001ed  00000000  00000000  000008bb  2**0
                  CONTENTS, READONLY, DEBUGGING
  8 .debug_abbrev 00000155  00000000  00000000  00000aa8  2**0
                  CONTENTS, READONLY, DEBUGGING
  9 .debug_line   000001ec  00000000  00000000  00000bfd  2**0
                  CONTENTS, READONLY, DEBUGGING
 10 .debug_frame  00000070  00000000  00000000  00000dec  2**2
                  CONTENTS, READONLY, DEBUGGING
 11 .debug_str    00000132  00000000  00000000  00000e5c  2**0
                  CONTENTS, READONLY, DEBUGGING
 12 .debug_loc    000000d4  00000000  00000000  00000f8e  2**0
                  CONTENTS, READONLY, DEBUGGING
Disassembly of section .text:

00000000 <__vectors>:
   0:	12 c0       	rjmp	.+36     	; 0x26 <__ctors_end>
   2:	2c c0       	rjmp	.+88     	; 0x5c <__bad_interrupt>
   4:	2b c0       	rjmp	.+86     	; 0x5c <__bad_interrupt>
   6:	82 c0       	rjmp	.+260    	; 0x10c <__vector_3>
   8:	5c c0       	rjmp	.+184    	; 0xc2 <__vector_4>
   a:	28 c0       	rjmp	.+80     	; 0x5c <__bad_interrupt>
   c:	27 c0       	rjmp	.+78     	; 0x5c <__bad_interrupt>
   e:	26 c0       	rjmp	.+76     	; 0x5c <__bad_interrupt>
  10:	25 c0       	rjmp	.+74     	; 0x5c <__bad_interrupt>
  12:	24 c0       	rjmp	.+72     	; 0x5c <__bad_interrupt>
  14:	23 c0       	rjmp	.+70     	; 0x5c <__bad_interrupt>
  16:	22 c0       	rjmp	.+68     	; 0x5c <__bad_interrupt>
  18:	21 c0       	rjmp	.+66     	; 0x5c <__bad_interrupt>
  1a:	20 c0       	rjmp	.+64     	; 0x5c <__bad_interrupt>
  1c:	1f c0       	rjmp	.+62     	; 0x5c <__bad_interrupt>
  1e:	1e c0       	rjmp	.+60     	; 0x5c <__bad_interrupt>
  20:	1d c0       	rjmp	.+58     	; 0x5c <__bad_interrupt>
  22:	1c c0       	rjmp	.+56     	; 0x5c <__bad_interrupt>
  24:	1b c0       	rjmp	.+54     	; 0x5c <__bad_interrupt>

00000026 <__ctors_end>:
  26:	11 24       	eor	r1, r1
  28:	1f be       	out	0x3f, r1	; 63
  2a:	cf e5       	ldi	r28, 0x5F	; 95
  2c:	d4 e0       	ldi	r29, 0x04	; 4
  2e:	de bf       	out	0x3e, r29	; 62
  30:	cd bf       	out	0x3d, r28	; 61

00000032 <__do_copy_data>:
  32:	10 e0       	ldi	r17, 0x00	; 0
  34:	a0 e6       	ldi	r26, 0x60	; 96
  36:	b0 e0       	ldi	r27, 0x00	; 0
  38:	e0 ee       	ldi	r30, 0xE0	; 224
  3a:	f3 e0       	ldi	r31, 0x03	; 3
  3c:	02 c0       	rjmp	.+4      	; 0x42 <.do_copy_data_start>

0000003e <.do_copy_data_loop>:
  3e:	05 90       	lpm	r0, Z+
  40:	0d 92       	st	X+, r0

00000042 <.do_copy_data_start>:
  42:	a4 36       	cpi	r26, 0x64	; 100
  44:	b1 07       	cpc	r27, r17
  46:	d9 f7       	brne	.-10     	; 0x3e <.do_copy_data_loop>

00000048 <__do_clear_bss>:
  48:	10 e0       	ldi	r17, 0x00	; 0
  4a:	a4 e6       	ldi	r26, 0x64	; 100
  4c:	b0 e0       	ldi	r27, 0x00	; 0
  4e:	01 c0       	rjmp	.+2      	; 0x52 <.do_clear_bss_start>

00000050 <.do_clear_bss_loop>:
  50:	1d 92       	st	X+, r1

00000052 <.do_clear_bss_start>:
  52:	a7 36       	cpi	r26, 0x67	; 103
  54:	b1 07       	cpc	r27, r17
  56:	e1 f7       	brne	.-8      	; 0x50 <.do_clear_bss_loop>
  58:	92 d0       	rcall	.+292    	; 0x17e <main>
  5a:	c1 c1       	rjmp	.+898    	; 0x3de <_exit>

0000005c <__bad_interrupt>:
  5c:	d1 cf       	rjmp	.-94     	; 0x0 <__vectors>

0000005e <servo_init>:
  5e:	a5 9a       	sbi	0x14, 5	; 20
  60:	85 b5       	in	r24, 0x25	; 37
  62:	80 64       	ori	r24, 0x40	; 64
  64:	85 bd       	out	0x25, r24	; 37
  66:	80 ef       	ldi	r24, 0xF0	; 240
  68:	83 bd       	out	0x23, r24	; 35
  6a:	89 b7       	in	r24, 0x39	; 57
  6c:	80 6c       	ori	r24, 0xC0	; 192
  6e:	89 bf       	out	0x39, r24	; 57
  70:	85 b5       	in	r24, 0x25	; 37
  72:	85 60       	ori	r24, 0x05	; 5
  74:	85 bd       	out	0x25, r24	; 37
  76:	08 95       	ret

00000078 <servo_interrupts>:
  78:	20 91 65 00 	lds	r18, 0x0065
  7c:	30 91 66 00 	lds	r19, 0x0066
  80:	88 23       	and	r24, r24
  82:	61 f4       	brne	.+24     	; 0x9c <servo_interrupts+0x24>
  84:	23 2b       	or	r18, r19
  86:	e1 f4       	brne	.+56     	; 0xc0 <servo_interrupts+0x48>
  88:	80 91 64 00 	lds	r24, 0x0064
  8c:	81 30       	cpi	r24, 0x01	; 1
  8e:	21 f4       	brne	.+8      	; 0x98 <servo_interrupts+0x20>
  90:	ad 9a       	sbi	0x15, 5	; 21
  92:	10 92 64 00 	sts	0x0064, r1
  96:	08 95       	ret
  98:	ad 98       	cbi	0x15, 5	; 21
  9a:	08 95       	ret
  9c:	21 15       	cp	r18, r1
  9e:	31 05       	cpc	r19, r1
  a0:	19 f4       	brne	.+6      	; 0xa8 <servo_interrupts+0x30>
  a2:	81 e0       	ldi	r24, 0x01	; 1
  a4:	80 93 64 00 	sts	0x0064, r24
  a8:	c9 01       	movw	r24, r18
  aa:	01 96       	adiw	r24, 0x01	; 1
  ac:	90 93 66 00 	sts	0x0066, r25
  b0:	80 93 65 00 	sts	0x0065, r24
  b4:	04 97       	sbiw	r24, 0x04	; 4
  b6:	20 f0       	brcs	.+8      	; 0xc0 <servo_interrupts+0x48>
  b8:	10 92 66 00 	sts	0x0066, r1
  bc:	10 92 65 00 	sts	0x0065, r1
  c0:	08 95       	ret

000000c2 <__vector_4>:
  c2:	1f 92       	push	r1
  c4:	0f 92       	push	r0
  c6:	0f b6       	in	r0, 0x3f	; 63
  c8:	0f 92       	push	r0
  ca:	11 24       	eor	r1, r1
  cc:	2f 93       	push	r18
  ce:	3f 93       	push	r19
  d0:	4f 93       	push	r20
  d2:	5f 93       	push	r21
  d4:	6f 93       	push	r22
  d6:	7f 93       	push	r23
  d8:	8f 93       	push	r24
  da:	9f 93       	push	r25
  dc:	af 93       	push	r26
  de:	bf 93       	push	r27
  e0:	ef 93       	push	r30
  e2:	ff 93       	push	r31
  e4:	81 e0       	ldi	r24, 0x01	; 1
  e6:	90 e0       	ldi	r25, 0x00	; 0
  e8:	c7 df       	rcall	.-114    	; 0x78 <servo_interrupts>
  ea:	ff 91       	pop	r31
  ec:	ef 91       	pop	r30
  ee:	bf 91       	pop	r27
  f0:	af 91       	pop	r26
  f2:	9f 91       	pop	r25
  f4:	8f 91       	pop	r24
  f6:	7f 91       	pop	r23
  f8:	6f 91       	pop	r22
  fa:	5f 91       	pop	r21
  fc:	4f 91       	pop	r20
  fe:	3f 91       	pop	r19
 100:	2f 91       	pop	r18
 102:	0f 90       	pop	r0
 104:	0f be       	out	0x3f, r0	; 63
 106:	0f 90       	pop	r0
 108:	1f 90       	pop	r1
 10a:	18 95       	reti

0000010c <__vector_3>:
 10c:	1f 92       	push	r1
 10e:	0f 92       	push	r0
 110:	0f b6       	in	r0, 0x3f	; 63
 112:	0f 92       	push	r0
 114:	11 24       	eor	r1, r1
 116:	2f 93       	push	r18
 118:	3f 93       	push	r19
 11a:	4f 93       	push	r20
 11c:	5f 93       	push	r21
 11e:	6f 93       	push	r22
 120:	7f 93       	push	r23
 122:	8f 93       	push	r24
 124:	9f 93       	push	r25
 126:	af 93       	push	r26
 128:	bf 93       	push	r27
 12a:	ef 93       	push	r30
 12c:	ff 93       	push	r31
 12e:	80 e0       	ldi	r24, 0x00	; 0
 130:	90 e0       	ldi	r25, 0x00	; 0
 132:	a2 df       	rcall	.-188    	; 0x78 <servo_interrupts>
 134:	ff 91       	pop	r31
 136:	ef 91       	pop	r30
 138:	bf 91       	pop	r27
 13a:	af 91       	pop	r26
 13c:	9f 91       	pop	r25
 13e:	8f 91       	pop	r24
 140:	7f 91       	pop	r23
 142:	6f 91       	pop	r22
 144:	5f 91       	pop	r21
 146:	4f 91       	pop	r20
 148:	3f 91       	pop	r19
 14a:	2f 91       	pop	r18
 14c:	0f 90       	pop	r0
 14e:	0f be       	out	0x3f, r0	; 63
 150:	0f 90       	pop	r0
 152:	1f 90       	pop	r1
 154:	18 95       	reti

00000156 <rand_range>:
 156:	ef 92       	push	r14
 158:	ff 92       	push	r15
 15a:	0f 93       	push	r16
 15c:	1f 93       	push	r17
 15e:	7c 01       	movw	r14, r24
 160:	8b 01       	movw	r16, r22
 162:	74 d0       	rcall	.+232    	; 0x24c <rand>
 164:	0e 19       	sub	r16, r14
 166:	1f 09       	sbc	r17, r15
 168:	0f 5f       	subi	r16, 0xFF	; 255
 16a:	1f 4f       	sbci	r17, 0xFF	; 255
 16c:	b8 01       	movw	r22, r16
 16e:	7d d0       	rcall	.+250    	; 0x26a <__divmodhi4>
 170:	8e 0d       	add	r24, r14
 172:	9f 1d       	adc	r25, r15
 174:	1f 91       	pop	r17
 176:	0f 91       	pop	r16
 178:	ff 90       	pop	r15
 17a:	ef 90       	pop	r14
 17c:	08 95       	ret

0000017e <main>:
 17e:	6f df       	rcall	.-290    	; 0x5e <servo_init>
 180:	78 94       	sei
 182:	63 e0       	ldi	r22, 0x03	; 3
 184:	70 e0       	ldi	r23, 0x00	; 0
 186:	80 e0       	ldi	r24, 0x00	; 0
 188:	90 e0       	ldi	r25, 0x00	; 0
 18a:	e5 df       	rcall	.-54     	; 0x156 <rand_range>
 18c:	89 2b       	or	r24, r25
 18e:	11 f0       	breq	.+4      	; 0x194 <main+0x16>
 190:	82 ed       	ldi	r24, 0xD2	; 210
 192:	01 c0       	rjmp	.+2      	; 0x196 <main+0x18>
 194:	8f ea       	ldi	r24, 0xAF	; 175
 196:	83 bd       	out	0x23, r24	; 35
 198:	24 ef       	ldi	r18, 0xF4	; 244
 19a:	31 e0       	ldi	r19, 0x01	; 1
 19c:	80 e9       	ldi	r24, 0x90	; 144
 19e:	91 e0       	ldi	r25, 0x01	; 1
 1a0:	01 97       	sbiw	r24, 0x01	; 1
 1a2:	f1 f7       	brne	.-4      	; 0x1a0 <main+0x22>
 1a4:	21 50       	subi	r18, 0x01	; 1
 1a6:	30 40       	sbci	r19, 0x00	; 0
 1a8:	c9 f7       	brne	.-14     	; 0x19c <main+0x1e>
 1aa:	eb cf       	rjmp	.-42     	; 0x182 <main+0x4>

000001ac <do_rand>:
 1ac:	a0 e0       	ldi	r26, 0x00	; 0
 1ae:	b0 e0       	ldi	r27, 0x00	; 0
 1b0:	eb ed       	ldi	r30, 0xDB	; 219
 1b2:	f0 e0       	ldi	r31, 0x00	; 0
 1b4:	c3 c0       	rjmp	.+390    	; 0x33c <__prologue_saves__+0x10>
 1b6:	ec 01       	movw	r28, r24
 1b8:	68 81       	ld	r22, Y
 1ba:	79 81       	ldd	r23, Y+1	; 0x01
 1bc:	8a 81       	ldd	r24, Y+2	; 0x02
 1be:	9b 81       	ldd	r25, Y+3	; 0x03
 1c0:	61 15       	cp	r22, r1
 1c2:	71 05       	cpc	r23, r1
 1c4:	81 05       	cpc	r24, r1
 1c6:	91 05       	cpc	r25, r1
 1c8:	49 f4       	brne	.+18     	; 0x1dc <do_rand+0x30>
 1ca:	84 e2       	ldi	r24, 0x24	; 36
 1cc:	a8 2e       	mov	r10, r24
 1ce:	89 ed       	ldi	r24, 0xD9	; 217
 1d0:	b8 2e       	mov	r11, r24
 1d2:	8b e5       	ldi	r24, 0x5B	; 91
 1d4:	c8 2e       	mov	r12, r24
 1d6:	87 e0       	ldi	r24, 0x07	; 7
 1d8:	d8 2e       	mov	r13, r24
 1da:	02 c0       	rjmp	.+4      	; 0x1e0 <do_rand+0x34>
 1dc:	5b 01       	movw	r10, r22
 1de:	6c 01       	movw	r12, r24
 1e0:	c6 01       	movw	r24, r12
 1e2:	b5 01       	movw	r22, r10
 1e4:	2d e1       	ldi	r18, 0x1D	; 29
 1e6:	33 ef       	ldi	r19, 0xF3	; 243
 1e8:	41 e0       	ldi	r20, 0x01	; 1
 1ea:	50 e0       	ldi	r21, 0x00	; 0
 1ec:	84 d0       	rcall	.+264    	; 0x2f6 <__divmodsi4>
 1ee:	27 ea       	ldi	r18, 0xA7	; 167
 1f0:	31 e4       	ldi	r19, 0x41	; 65
 1f2:	40 e0       	ldi	r20, 0x00	; 0
 1f4:	50 e0       	ldi	r21, 0x00	; 0
 1f6:	60 d0       	rcall	.+192    	; 0x2b8 <__mulsi3>
 1f8:	7b 01       	movw	r14, r22
 1fa:	8c 01       	movw	r16, r24
 1fc:	c6 01       	movw	r24, r12
 1fe:	b5 01       	movw	r22, r10
 200:	2d e1       	ldi	r18, 0x1D	; 29
 202:	33 ef       	ldi	r19, 0xF3	; 243
 204:	41 e0       	ldi	r20, 0x01	; 1
 206:	50 e0       	ldi	r21, 0x00	; 0
 208:	76 d0       	rcall	.+236    	; 0x2f6 <__divmodsi4>
 20a:	ca 01       	movw	r24, r20
 20c:	b9 01       	movw	r22, r18
 20e:	24 e1       	ldi	r18, 0x14	; 20
 210:	3b e0       	ldi	r19, 0x0B	; 11
 212:	40 e0       	ldi	r20, 0x00	; 0
 214:	50 e0       	ldi	r21, 0x00	; 0
 216:	50 d0       	rcall	.+160    	; 0x2b8 <__mulsi3>
 218:	e6 1a       	sub	r14, r22
 21a:	f7 0a       	sbc	r15, r23
 21c:	08 0b       	sbc	r16, r24
 21e:	19 0b       	sbc	r17, r25
 220:	17 ff       	sbrs	r17, 7
 222:	08 c0       	rjmp	.+16     	; 0x234 <do_rand+0x88>
 224:	8f ef       	ldi	r24, 0xFF	; 255
 226:	9f ef       	ldi	r25, 0xFF	; 255
 228:	af ef       	ldi	r26, 0xFF	; 255
 22a:	bf e7       	ldi	r27, 0x7F	; 127
 22c:	e8 0e       	add	r14, r24
 22e:	f9 1e       	adc	r15, r25
 230:	0a 1f       	adc	r16, r26
 232:	1b 1f       	adc	r17, r27
 234:	e8 82       	st	Y, r14
 236:	f9 82       	std	Y+1, r15	; 0x01
 238:	0a 83       	std	Y+2, r16	; 0x02
 23a:	1b 83       	std	Y+3, r17	; 0x03
 23c:	c7 01       	movw	r24, r14
 23e:	9f 77       	andi	r25, 0x7F	; 127
 240:	ea e0       	ldi	r30, 0x0A	; 10
 242:	cd b7       	in	r28, 0x3d	; 61
 244:	de b7       	in	r29, 0x3e	; 62
 246:	96 c0       	rjmp	.+300    	; 0x374 <__epilogue_restores__+0x10>

00000248 <rand_r>:
 248:	b1 df       	rcall	.-158    	; 0x1ac <do_rand>
 24a:	08 95       	ret

0000024c <rand>:
 24c:	80 e6       	ldi	r24, 0x60	; 96
 24e:	90 e0       	ldi	r25, 0x00	; 0
 250:	ad df       	rcall	.-166    	; 0x1ac <do_rand>
 252:	08 95       	ret

00000254 <srand>:
 254:	a0 e0       	ldi	r26, 0x00	; 0
 256:	b0 e0       	ldi	r27, 0x00	; 0
 258:	80 93 60 00 	sts	0x0060, r24
 25c:	90 93 61 00 	sts	0x0061, r25
 260:	a0 93 62 00 	sts	0x0062, r26
 264:	b0 93 63 00 	sts	0x0063, r27
 268:	08 95       	ret

0000026a <__divmodhi4>:
 26a:	97 fb       	bst	r25, 7
 26c:	09 2e       	mov	r0, r25
 26e:	07 26       	eor	r0, r23
 270:	0a d0       	rcall	.+20     	; 0x286 <__divmodhi4_neg1>
 272:	77 fd       	sbrc	r23, 7
 274:	04 d0       	rcall	.+8      	; 0x27e <__divmodhi4_neg2>
 276:	0c d0       	rcall	.+24     	; 0x290 <__udivmodhi4>
 278:	06 d0       	rcall	.+12     	; 0x286 <__divmodhi4_neg1>
 27a:	00 20       	and	r0, r0
 27c:	1a f4       	brpl	.+6      	; 0x284 <__divmodhi4_exit>

0000027e <__divmodhi4_neg2>:
 27e:	70 95       	com	r23
 280:	61 95       	neg	r22
 282:	7f 4f       	sbci	r23, 0xFF	; 255

00000284 <__divmodhi4_exit>:
 284:	08 95       	ret

00000286 <__divmodhi4_neg1>:
 286:	f6 f7       	brtc	.-4      	; 0x284 <__divmodhi4_exit>
 288:	90 95       	com	r25
 28a:	81 95       	neg	r24
 28c:	9f 4f       	sbci	r25, 0xFF	; 255
 28e:	08 95       	ret

00000290 <__udivmodhi4>:
 290:	aa 1b       	sub	r26, r26
 292:	bb 1b       	sub	r27, r27
 294:	51 e1       	ldi	r21, 0x11	; 17
 296:	07 c0       	rjmp	.+14     	; 0x2a6 <__udivmodhi4_ep>

00000298 <__udivmodhi4_loop>:
 298:	aa 1f       	adc	r26, r26
 29a:	bb 1f       	adc	r27, r27
 29c:	a6 17       	cp	r26, r22
 29e:	b7 07       	cpc	r27, r23
 2a0:	10 f0       	brcs	.+4      	; 0x2a6 <__udivmodhi4_ep>
 2a2:	a6 1b       	sub	r26, r22
 2a4:	b7 0b       	sbc	r27, r23

000002a6 <__udivmodhi4_ep>:
 2a6:	88 1f       	adc	r24, r24
 2a8:	99 1f       	adc	r25, r25
 2aa:	5a 95       	dec	r21
 2ac:	a9 f7       	brne	.-22     	; 0x298 <__udivmodhi4_loop>
 2ae:	80 95       	com	r24
 2b0:	90 95       	com	r25
 2b2:	bc 01       	movw	r22, r24
 2b4:	cd 01       	movw	r24, r26
 2b6:	08 95       	ret

000002b8 <__mulsi3>:
 2b8:	62 9f       	mul	r22, r18
 2ba:	d0 01       	movw	r26, r0
 2bc:	73 9f       	mul	r23, r19
 2be:	f0 01       	movw	r30, r0
 2c0:	82 9f       	mul	r24, r18
 2c2:	e0 0d       	add	r30, r0
 2c4:	f1 1d       	adc	r31, r1
 2c6:	64 9f       	mul	r22, r20
 2c8:	e0 0d       	add	r30, r0
 2ca:	f1 1d       	adc	r31, r1
 2cc:	92 9f       	mul	r25, r18
 2ce:	f0 0d       	add	r31, r0
 2d0:	83 9f       	mul	r24, r19
 2d2:	f0 0d       	add	r31, r0
 2d4:	74 9f       	mul	r23, r20
 2d6:	f0 0d       	add	r31, r0
 2d8:	65 9f       	mul	r22, r21
 2da:	f0 0d       	add	r31, r0
 2dc:	99 27       	eor	r25, r25
 2de:	72 9f       	mul	r23, r18
 2e0:	b0 0d       	add	r27, r0
 2e2:	e1 1d       	adc	r30, r1
 2e4:	f9 1f       	adc	r31, r25
 2e6:	63 9f       	mul	r22, r19
 2e8:	b0 0d       	add	r27, r0
 2ea:	e1 1d       	adc	r30, r1
 2ec:	f9 1f       	adc	r31, r25
 2ee:	bd 01       	movw	r22, r26
 2f0:	cf 01       	movw	r24, r30
 2f2:	11 24       	eor	r1, r1
 2f4:	08 95       	ret

000002f6 <__divmodsi4>:
 2f6:	97 fb       	bst	r25, 7
 2f8:	09 2e       	mov	r0, r25
 2fa:	05 26       	eor	r0, r21
 2fc:	0e d0       	rcall	.+28     	; 0x31a <__divmodsi4_neg1>
 2fe:	57 fd       	sbrc	r21, 7
 300:	04 d0       	rcall	.+8      	; 0x30a <__divmodsi4_neg2>
 302:	4b d0       	rcall	.+150    	; 0x39a <__udivmodsi4>
 304:	0a d0       	rcall	.+20     	; 0x31a <__divmodsi4_neg1>
 306:	00 1c       	adc	r0, r0
 308:	38 f4       	brcc	.+14     	; 0x318 <__divmodsi4_exit>

0000030a <__divmodsi4_neg2>:
 30a:	50 95       	com	r21
 30c:	40 95       	com	r20
 30e:	30 95       	com	r19
 310:	21 95       	neg	r18
 312:	3f 4f       	sbci	r19, 0xFF	; 255
 314:	4f 4f       	sbci	r20, 0xFF	; 255
 316:	5f 4f       	sbci	r21, 0xFF	; 255

00000318 <__divmodsi4_exit>:
 318:	08 95       	ret

0000031a <__divmodsi4_neg1>:
 31a:	f6 f7       	brtc	.-4      	; 0x318 <__divmodsi4_exit>
 31c:	90 95       	com	r25
 31e:	80 95       	com	r24
 320:	70 95       	com	r23
 322:	61 95       	neg	r22
 324:	7f 4f       	sbci	r23, 0xFF	; 255
 326:	8f 4f       	sbci	r24, 0xFF	; 255
 328:	9f 4f       	sbci	r25, 0xFF	; 255
 32a:	08 95       	ret

0000032c <__prologue_saves__>:
 32c:	2f 92       	push	r2
 32e:	3f 92       	push	r3
 330:	4f 92       	push	r4
 332:	5f 92       	push	r5
 334:	6f 92       	push	r6
 336:	7f 92       	push	r7
 338:	8f 92       	push	r8
 33a:	9f 92       	push	r9
 33c:	af 92       	push	r10
 33e:	bf 92       	push	r11
 340:	cf 92       	push	r12
 342:	df 92       	push	r13
 344:	ef 92       	push	r14
 346:	ff 92       	push	r15
 348:	0f 93       	push	r16
 34a:	1f 93       	push	r17
 34c:	cf 93       	push	r28
 34e:	df 93       	push	r29
 350:	cd b7       	in	r28, 0x3d	; 61
 352:	de b7       	in	r29, 0x3e	; 62
 354:	ca 1b       	sub	r28, r26
 356:	db 0b       	sbc	r29, r27
 358:	0f b6       	in	r0, 0x3f	; 63
 35a:	f8 94       	cli
 35c:	de bf       	out	0x3e, r29	; 62
 35e:	0f be       	out	0x3f, r0	; 63
 360:	cd bf       	out	0x3d, r28	; 61
 362:	09 94       	ijmp

00000364 <__epilogue_restores__>:
 364:	2a 88       	ldd	r2, Y+18	; 0x12
 366:	39 88       	ldd	r3, Y+17	; 0x11
 368:	48 88       	ldd	r4, Y+16	; 0x10
 36a:	5f 84       	ldd	r5, Y+15	; 0x0f
 36c:	6e 84       	ldd	r6, Y+14	; 0x0e
 36e:	7d 84       	ldd	r7, Y+13	; 0x0d
 370:	8c 84       	ldd	r8, Y+12	; 0x0c
 372:	9b 84       	ldd	r9, Y+11	; 0x0b
 374:	aa 84       	ldd	r10, Y+10	; 0x0a
 376:	b9 84       	ldd	r11, Y+9	; 0x09
 378:	c8 84       	ldd	r12, Y+8	; 0x08
 37a:	df 80       	ldd	r13, Y+7	; 0x07
 37c:	ee 80       	ldd	r14, Y+6	; 0x06
 37e:	fd 80       	ldd	r15, Y+5	; 0x05
 380:	0c 81       	ldd	r16, Y+4	; 0x04
 382:	1b 81       	ldd	r17, Y+3	; 0x03
 384:	aa 81       	ldd	r26, Y+2	; 0x02
 386:	b9 81       	ldd	r27, Y+1	; 0x01
 388:	ce 0f       	add	r28, r30
 38a:	d1 1d       	adc	r29, r1
 38c:	0f b6       	in	r0, 0x3f	; 63
 38e:	f8 94       	cli
 390:	de bf       	out	0x3e, r29	; 62
 392:	0f be       	out	0x3f, r0	; 63
 394:	cd bf       	out	0x3d, r28	; 61
 396:	ed 01       	movw	r28, r26
 398:	08 95       	ret

0000039a <__udivmodsi4>:
 39a:	a1 e2       	ldi	r26, 0x21	; 33
 39c:	1a 2e       	mov	r1, r26
 39e:	aa 1b       	sub	r26, r26
 3a0:	bb 1b       	sub	r27, r27
 3a2:	fd 01       	movw	r30, r26
 3a4:	0d c0       	rjmp	.+26     	; 0x3c0 <__udivmodsi4_ep>

000003a6 <__udivmodsi4_loop>:
 3a6:	aa 1f       	adc	r26, r26
 3a8:	bb 1f       	adc	r27, r27
 3aa:	ee 1f       	adc	r30, r30
 3ac:	ff 1f       	adc	r31, r31
 3ae:	a2 17       	cp	r26, r18
 3b0:	b3 07       	cpc	r27, r19
 3b2:	e4 07       	cpc	r30, r20
 3b4:	f5 07       	cpc	r31, r21
 3b6:	20 f0       	brcs	.+8      	; 0x3c0 <__udivmodsi4_ep>
 3b8:	a2 1b       	sub	r26, r18
 3ba:	b3 0b       	sbc	r27, r19
 3bc:	e4 0b       	sbc	r30, r20
 3be:	f5 0b       	sbc	r31, r21

000003c0 <__udivmodsi4_ep>:
 3c0:	66 1f       	adc	r22, r22
 3c2:	77 1f       	adc	r23, r23
 3c4:	88 1f       	adc	r24, r24
 3c6:	99 1f       	adc	r25, r25
 3c8:	1a 94       	dec	r1
 3ca:	69 f7       	brne	.-38     	; 0x3a6 <__udivmodsi4_loop>
 3cc:	60 95       	com	r22
 3ce:	70 95       	com	r23
 3d0:	80 95       	com	r24
 3d2:	90 95       	com	r25
 3d4:	9b 01       	movw	r18, r22
 3d6:	ac 01       	movw	r20, r24
 3d8:	bd 01       	movw	r22, r26
 3da:	cf 01       	movw	r24, r30
 3dc:	08 95       	ret

000003de <_exit>:
 3de:	ff cf       	rjmp	.-2      	; 0x3de <_exit>
